target datalayout = "e-m:e-p270:32:32-p271:32:32-p272:64:64-i64:64-i128:128-f80:128-n8:16:32:64-S128"
target triple = "x86_64-pc-linux-gnu"

%"class.icu_77::TimeUnitFormat" = type <{ %"class.icu_77::MeasureFormat", [7 x ptr], i32, [4 x i8] }>
%"class.icu_77::MeasureFormat" = type { %"class.icu_77::Format", ptr, ptr, ptr, i32, ptr }
%"class.icu_77::Format" = type { %"class.icu_77::UObject", ptr, ptr }
%"class.icu_77::UObject" = type { ptr }
%"class.icu_77::Hashtable" = type { ptr, %struct.UHashtable }
%struct.UHashtable = type { ptr, ptr, ptr, ptr, ptr, ptr, i32, i32, i32, i32, float, float, i8, i8 }

; Function Attrs: inlinehint mustprogress nounwind uwtable
define linkonce_odr void @_ZN6icu_779HashtableD2Ev(ptr noundef nonnull align 8 dereferenceable(88) %0) unnamed_addr #2 comdat align 2 personality ptr @__gxx_personality_v0 {
  %2 = alloca ptr, align 8
  store ptr %0, ptr %2, align 8, !tbaa !31
  %3 = load ptr, ptr %2, align 8
  %4 = getelementptr inbounds nuw %"class.icu_77::Hashtable", ptr %3, i32 0, i32 0
  %5 = load ptr, ptr %4, align 8, !tbaa !61
  %6 = icmp ne ptr %5, null
  br i1 %6, label %7, label %11

7:                                                ; preds = %1
  %8 = getelementptr inbounds nuw %"class.icu_77::Hashtable", ptr %3, i32 0, i32 0
  %9 = load ptr, ptr %8, align 8, !tbaa !61
  invoke void @uhash_close_77(ptr noundef %9)
          to label %10 unwind label %12

10:                                               ; preds = %7
  br label %11

11:                                               ; preds = %10, %1
  ret void

12:                                               ; preds = %7
  %13 = landingpad { ptr, i32 }
          catch ptr null
  %14 = extractvalue { ptr, i32 } %13, 0
  call void @__clang_call_terminate(ptr %14) #13
  unreachable
}

; Function Attrs: inlinehint mustprogress nounwind uwtable
define internal noundef signext i8 @_ZL9U_SUCCESS10UErrorCode(i32 noundef %0) #2 {
  %2 = alloca i32, align 4
  store i32 %0, ptr %2, align 4, !tbaa !15
  %3 = load i32, ptr %2, align 4, !tbaa !15
  %4 = icmp sle i32 %3, 0
  %5 = zext i1 %4 to i8
  ret i8 %5
}

; Function Attrs: mustprogress uwtable
define noundef nonnull align 8 dereferenceable(124) ptr @_ZN6icu_7714TimeUnitFormataSERKS0_(ptr noundef nonnull align 8 dereferenceable(124) %0, ptr noundef nonnull align 8 dereferenceable(124) %1) #1 align 2 {
  %3 = alloca ptr, align 8
  %4 = alloca ptr, align 8
  %5 = alloca ptr, align 8
  %6 = alloca i32, align 4
  %7 = alloca i32, align 4
  %8 = alloca i32, align 4
  store ptr %0, ptr %4, align 8, !tbaa !23
  store ptr %1, ptr %5, align 8, !tbaa !23
  %9 = load ptr, ptr %4, align 8
  %10 = load ptr, ptr %5, align 8, !tbaa !23
  %11 = icmp eq ptr %9, %10
  br i1 %11, label %12, label %13

12:                                               ; preds = %2
  store ptr %9, ptr %3, align 8
  br label %81

13:                                               ; preds = %2
  %14 = load ptr, ptr %5, align 8, !tbaa !23
  %15 = call noundef nonnull align 8 dereferenceable(64) ptr @_ZN6icu_7713MeasureFormataSERKS0_(ptr noundef nonnull align 8 dereferenceable(64) %9, ptr noundef nonnull align 8 dereferenceable(64) %14)
  call void @llvm.lifetime.start.p0(i64 4, ptr %6) #11
  store i32 0, ptr %6, align 4, !tbaa !29
  br label %16

16:                                               ; preds = %30, %13
  %17 = load i32, ptr %6, align 4, !tbaa !29
  %18 = icmp slt i32 %17, 7
  br i1 %18, label %20, label %19

19:                                               ; preds = %16
  call void @llvm.lifetime.end.p0(i64 4, ptr %6) #11
  br label %33

20:                                               ; preds = %16
  %21 = getelementptr inbounds nuw %"class.icu_77::TimeUnitFormat", ptr %9, i32 0, i32 1
  %22 = load i32, ptr %6, align 4, !tbaa !29
  %23 = zext i32 %22 to i64
  %24 = getelementptr inbounds nuw [7 x ptr], ptr %21, i64 0, i64 %23
  %25 = load ptr, ptr %24, align 8, !tbaa !31
  call void @_ZN6icu_7714TimeUnitFormat10deleteHashEPNS_9HashtableE(ptr noundef nonnull align 8 dereferenceable(124) %9, ptr noundef %25)
  %26 = getelementptr inbounds nuw %"class.icu_77::TimeUnitFormat", ptr %9, i32 0, i32 1
  %27 = load i32, ptr %6, align 4, !tbaa !29
  %28 = zext i32 %27 to i64
  %29 = getelementptr inbounds nuw [7 x ptr], ptr %26, i64 0, i64 %28
  store ptr null, ptr %29, align 8, !tbaa !31
  br label %30

30:                                               ; preds = %20
  %31 = load i32, ptr %6, align 4, !tbaa !29
  %32 = add nsw i32 %31, 1
  store i32 %32, ptr %6, align 4, !tbaa !29
  br label %16, !llvm.loop !68

33:                                               ; preds = %19
  call void @llvm.lifetime.start.p0(i64 4, ptr %7) #11
  store i32 0, ptr %7, align 4, !tbaa !29
  br label %34

34:                                               ; preds = %73, %33
  %35 = load i32, ptr %7, align 4, !tbaa !29
  %36 = icmp slt i32 %35, 7
  br i1 %36, label %38, label %37

37:                                               ; preds = %34
  call void @llvm.lifetime.end.p0(i64 4, ptr %7) #11
  br label %76

38:                                               ; preds = %34
  call void @llvm.lifetime.start.p0(i64 4, ptr %8) #11
  store i32 0, ptr %8, align 4, !tbaa !15
  %39 = call noundef ptr @_ZN6icu_7714TimeUnitFormat8initHashER10UErrorCode(ptr noundef nonnull align 8 dereferenceable(124) %9, ptr noundef nonnull align 4 dereferenceable(4) %8)
  %40 = getelementptr inbounds nuw %"class.icu_77::TimeUnitFormat", ptr %9, i32 0, i32 1
  %41 = load i32, ptr %7, align 4, !tbaa !29
  %42 = zext i32 %41 to i64
  %43 = getelementptr inbounds nuw [7 x ptr], ptr %40, i64 0, i64 %42
  store ptr %39, ptr %43, align 8, !tbaa !31
  %44 = load i32, ptr %8, align 4, !tbaa !15
  %45 = call noundef signext i8 @_ZL9U_SUCCESS10UErrorCode(i32 noundef %44)
  %46 = icmp ne i8 %45, 0
  br i1 %46, label %47, label %59

47:                                               ; preds = %38
  %48 = load ptr, ptr %5, align 8, !tbaa !23
  %49 = getelementptr inbounds nuw %"class.icu_77::TimeUnitFormat", ptr %48, i32 0, i32 1
  %50 = load i32, ptr %7, align 4, !tbaa !29
  %51 = zext i32 %50 to i64
  %52 = getelementptr inbounds nuw [7 x ptr], ptr %49, i64 0, i64 %51
  %53 = load ptr, ptr %52, align 8, !tbaa !31
  %54 = getelementptr inbounds nuw %"class.icu_77::TimeUnitFormat", ptr %9, i32 0, i32 1
  %55 = load i32, ptr %7, align 4, !tbaa !29
  %56 = zext i32 %55 to i64
  %57 = getelementptr inbounds nuw [7 x ptr], ptr %54, i64 0, i64 %56
  %58 = load ptr, ptr %57, align 8, !tbaa !31
  call void @_ZN6icu_7714TimeUnitFormat8copyHashEPKNS_9HashtableEPS1_R10UErrorCode(ptr noundef nonnull align 8 dereferenceable(124) %9, ptr noundef %53, ptr noundef %58, ptr noundef nonnull align 4 dereferenceable(4) %8)
  br label %72

59:                                               ; preds = %38
  %60 = getelementptr inbounds nuw %"class.icu_77::TimeUnitFormat", ptr %9, i32 0, i32 1
  %61 = load i32, ptr %7, align 4, !tbaa !29
  %62 = zext i32 %61 to i64
  %63 = getelementptr inbounds nuw [7 x ptr], ptr %60, i64 0, i64 %62
  %64 = load ptr, ptr %63, align 8, !tbaa !31
  %65 = icmp eq ptr %64, null
  br i1 %65, label %67, label %66

66:                                               ; preds = %59
  call void @_ZN6icu_779HashtableD2Ev(ptr noundef nonnull align 8 dereferenceable(88) %64) #11
  call void @_ZN6icu_777UMemorydlEPv(ptr noundef %64) #11
  br label %67

67:                                               ; preds = %66, %59
  %68 = getelementptr inbounds nuw %"class.icu_77::TimeUnitFormat", ptr %9, i32 0, i32 1
  %69 = load i32, ptr %7, align 4, !tbaa !29
  %70 = zext i32 %69 to i64
  %71 = getelementptr inbounds nuw [7 x ptr], ptr %68, i64 0, i64 %70
  store ptr null, ptr %71, align 8, !tbaa !31
  br label %72

72:                                               ; preds = %67, %47
  call void @llvm.lifetime.end.p0(i64 4, ptr %8) #11
  br label %73

73:                                               ; preds = %72
  %74 = load i32, ptr %7, align 4, !tbaa !29
  %75 = add nsw i32 %74, 1
  store i32 %75, ptr %7, align 4, !tbaa !29
  br label %34, !llvm.loop !69

76:                                               ; preds = %37
  %77 = load ptr, ptr %5, align 8, !tbaa !23
  %78 = getelementptr inbounds nuw %"class.icu_77::TimeUnitFormat", ptr %77, i32 0, i32 2
  %79 = load i32, ptr %78, align 8, !tbaa !35
  %80 = getelementptr inbounds nuw %"class.icu_77::TimeUnitFormat", ptr %9, i32 0, i32 2
  store i32 %79, ptr %80, align 8, !tbaa !35
  store ptr %9, ptr %3, align 8
  br label %81

81:                                               ; preds = %76, %12
  %82 = load ptr, ptr %3, align 8
  ret ptr %82
}