; Function Attrs: mustprogress uwtable
define noundef nonnull align 8 dereferenceable(124) ptr @_ZN6icu_7714TimeUnitFormataSERKS0_(ptr noundef nonnull returned align 8 dereferenceable(124) %0, ptr noundef nonnull align 8 dereferenceable(124) %1) local_unnamed_addr #1 align 2 personality ptr @__gxx_personality_v0 {
  %3 = alloca i32, align 4
  %4 = icmp eq ptr %0, %1
  br i1 %4, label %34, label %5

5:                                                ; preds = %2
  %6 = tail call noundef nonnull align 8 dereferenceable(64) ptr @_ZN6icu_7713MeasureFormataSERKS0_(ptr noundef nonnull align 8 dereferenceable(64) %0, ptr noundef nonnull align 8 dereferenceable(64) %1)
  %7 = getelementptr inbounds nuw i8, ptr %0, i64 64
  br label %9

.preheader:                                       ; preds = %9
  %8 = getelementptr inbounds nuw i8, ptr %1, i64 64
  br label %16

9:                                                ; preds = %5, %9
  %indvars.iv = phi i64 [ 0, %5 ], [ %indvars.iv.next, %9 ]
  %10 = getelementptr inbounds nuw [7 x ptr], ptr %7, i64 0, i64 %indvars.iv
  %11 = load ptr, ptr %10, align 8, !tbaa !17
  tail call void @_ZN6icu_7714TimeUnitFormat10deleteHashEPNS_9HashtableE(ptr nonnull align 8 poison, ptr noundef %11)
  store ptr null, ptr %10, align 8, !tbaa !17
  %indvars.iv.next = add nuw nsw i64 %indvars.iv, 1
  %exitcond.not = icmp eq i64 %indvars.iv.next, 7
  br i1 %exitcond.not, label %.preheader, label %9, !llvm.loop !45

12:                                               ; preds = %33
  %13 = getelementptr inbounds nuw i8, ptr %1, i64 120
  %14 = load i32, ptr %13, align 8, !tbaa !19
  %15 = getelementptr inbounds nuw i8, ptr %0, i64 120
  store i32 %14, ptr %15, align 8, !tbaa !19
  br label %34

16:                                               ; preds = %.preheader, %33
  %indvars.iv24 = phi i64 [ 0, %.preheader ], [ %indvars.iv.next25, %33 ]
  call void @llvm.lifetime.start.p0(i64 4, ptr nonnull %3) #16
  store i32 0, ptr %3, align 4, !tbaa !13
  %17 = call noundef ptr @_ZN6icu_7714TimeUnitFormat8initHashER10UErrorCode(ptr nonnull align 8 poison, ptr noundef nonnull align 4 dereferenceable(4) %3)
  %18 = getelementptr inbounds nuw [7 x ptr], ptr %7, i64 0, i64 %indvars.iv24
  store ptr %17, ptr %18, align 8, !tbaa !17
  %19 = load i32, ptr %3, align 4, !tbaa !13
  %20 = icmp sgt i32 %19, 0
  br i1 %20, label %24, label %21

21:                                               ; preds = %16
  %22 = getelementptr inbounds nuw [7 x ptr], ptr %8, i64 0, i64 %indvars.iv24
  %23 = load ptr, ptr %22, align 8, !tbaa !17
  call void @_ZN6icu_7714TimeUnitFormat8copyHashEPKNS_9HashtableEPS1_R10UErrorCode(ptr nonnull align 8 poison, ptr noundef %23, ptr noundef %17, ptr noundef nonnull align 4 dereferenceable(4) %3)
  br label %33

24:                                               ; preds = %16
  %25 = icmp eq ptr %17, null
  br i1 %25, label %32, label %26

26:                                               ; preds = %24
  %27 = load ptr, ptr %17, align 8, !tbaa !31
  %.not.i = icmp eq ptr %27, null
  br i1 %.not.i, label %_ZN6icu_779HashtableD2Ev.exit, label %28

28:                                               ; preds = %26
  invoke void @uhash_close_77(ptr noundef nonnull %27)
          to label %_ZN6icu_779HashtableD2Ev.exit unwind label %29

29:                                               ; preds = %28
  %30 = landingpad { ptr, i32 }
          catch ptr null
  %31 = extractvalue { ptr, i32 } %30, 0
  call void @__clang_call_terminate(ptr %31) #18
  unreachable

_ZN6icu_779HashtableD2Ev.exit:                    ; preds = %26, %28
  call void @_ZN6icu_777UMemorydlEPv(ptr noundef nonnull %17) #16
  br label %32

32:                                               ; preds = %_ZN6icu_779HashtableD2Ev.exit, %24
  store ptr null, ptr %18, align 8, !tbaa !17
  br label %33

33:                                               ; preds = %32, %21
  call void @llvm.lifetime.end.p0(i64 4, ptr nonnull %3) #16
  %indvars.iv.next25 = add nuw nsw i64 %indvars.iv24, 1
  %exitcond27.not = icmp eq i64 %indvars.iv.next25, 7
  br i1 %exitcond27.not, label %12, label %16, !llvm.loop !46

34:                                               ; preds = %2, %12
  ret ptr %0
}